; Function Attrs: mustprogress nounwind uwtable
define dso_local void @_ZN12ScopedMetricD2Ev(ptr noundef nonnull readonly align 8 captures(none) dereferenceable(16) %0) unnamed_addr #0 align 2 personality ptr @__gxx_personality_v0 {
  %2 = load ptr, ptr %0, align 8, !tbaa !4
  %.not = icmp eq ptr %2, null
  br i1 %.not, label %15, label %3

3:                                                ; preds = %1
  %4 = getelementptr inbounds nuw i8, ptr %2, i64 32
  %5 = load i32, ptr %4, align 8, !tbaa !12
  %6 = add nsw i32 %5, 1
  store i32 %6, ptr %4, align 8, !tbaa !12
  %7 = tail call noundef i64 @_ZNSt6chrono3_V212steady_clock3nowEv() #12
  %8 = getelementptr inbounds nuw i8, ptr %0, i64 8
  %9 = load i64, ptr %8, align 8, !tbaa !11
  %10 = sub i64 %7, %9
  %11 = load ptr, ptr %0, align 8, !tbaa !4
  %12 = getelementptr inbounds nuw i8, ptr %11, i64 40
  %13 = load i64, ptr %12, align 8, !tbaa !18
  %14 = add nsw i64 %10, %13
  store i64 %14, ptr %12, align 8, !tbaa !18
  br label %15

15:                                               ; preds = %1, %3
  ret void
}